target datalayout = "e-m:e-p270:32:32-p271:32:32-p272:64:64-i64:64-i128:128-f80:128-n8:16:32:64-S128"
target triple = "x86_64-pc-linux-gnu"

%"class.std::__cxx11::basic_string" = type { %"struct.std::__cxx11::basic_string<char>::_Alloc_hider", i64, %union.anon }
%"struct.std::__cxx11::basic_string<char>::_Alloc_hider" = type { ptr }
%union.anon = type { i64, [8 x i8] }
%"struct.faiss::IOWriter" = type { ptr, %"class.std::__cxx11::basic_string" }
%"struct.faiss::FileIOWriter" = type <{ %"struct.faiss::IOWriter", ptr, i8, [7 x i8] }>

@_ZTVN5faiss8IOWriterE = unnamed_addr constant { [6 x ptr] } { [6 x ptr] [ptr null, ptr @_ZTIN5faiss8IOWriterE, ptr @__cxa_pure_virtual, ptr @_ZN5faiss8IOWriter6filenoEv, ptr @_ZN5faiss8IOWriterD2Ev, ptr @_ZN5faiss8IOWriterD0Ev] }, align 8
@_ZTVN5faiss12FileIOWriterE = unnamed_addr constant { [6 x ptr] } { [6 x ptr] [ptr null, ptr @_ZTIN5faiss12FileIOWriterE, ptr @_ZN5faiss12FileIOWriterclEPKvmm, ptr @_ZN5faiss12FileIOWriter6filenoEv, ptr @_ZN5faiss12FileIOWriterD1Ev, ptr @_ZN5faiss12FileIOWriterD0Ev] }, align 8

; Function Attrs: mustprogress nounwind uwtable
define linkonce_odr void @_ZN5faiss8IOWriterC2Ev(ptr noundef nonnull align 8 dereferenceable(40) %0) unnamed_addr #1 comdat align 2 {
  %2 = alloca ptr, align 8
  store ptr %0, ptr %2, align 8
  %3 = load ptr, ptr %2, align 8
  store ptr getelementptr inbounds ({ [6 x ptr] }, ptr @_ZTVN5faiss8IOWriterE, i32 0, i32 0, i32 2), ptr %3, align 8
  %4 = getelementptr inbounds %"struct.faiss::IOWriter", ptr %3, i32 0, i32 1
  call void @_ZNSt7__cxx1112basic_stringIcSt11char_traitsIcESaIcEEC1Ev(ptr noundef nonnull align 8 dereferenceable(32) %4) #12
  ret void
}

; Function Attrs: mustprogress nounwind uwtable
define void @_ZN5faiss12FileIOWriterC2EP8_IO_FILE(ptr noundef nonnull align 8 dereferenceable(49) %0, ptr noundef %1) unnamed_addr #1 align 2 {
  %3 = alloca ptr, align 8
  %4 = alloca ptr, align 8
  store ptr %0, ptr %3, align 8
  store ptr %1, ptr %4, align 8
  %5 = load ptr, ptr %3, align 8
  call void @_ZN5faiss8IOWriterC2Ev(ptr noundef nonnull align 8 dereferenceable(40) %5) #12
  store ptr getelementptr inbounds ({ [6 x ptr] }, ptr @_ZTVN5faiss12FileIOWriterE, i32 0, i32 0, i32 2), ptr %5, align 8
  %6 = getelementptr inbounds %"struct.faiss::FileIOWriter", ptr %5, i32 0, i32 1
  %7 = load ptr, ptr %4, align 8
  store ptr %7, ptr %6, align 8
  %8 = getelementptr inbounds %"struct.faiss::FileIOWriter", ptr %5, i32 0, i32 2
  store i8 0, ptr %8, align 8
  ret void
}